     1 00000000                                 [FORMAT "WCOFF"]
     2 00000000                                 [INSTRSET "i486p"]
     3 00000000                                 [OPTIMIZE 1]
     4 00000000                                 [OPTION 1]
     5 00000000                                 [BITS 32]
     6 00000000                                 	EXTERN	_vsprintf
     7 00000000                                 	EXTERN	_api_putstr0
     8 00000000                                 	EXTERN	_api_end
     9 00000000                                 	EXTERN	__alloca
    10 00000000                                 	EXTERN	_api_cmdline
    11 00000000                                 	EXTERN	_api_fopen
    12 00000000                                 	EXTERN	_api_fread
    13 00000000                                 	EXTERN	_api_putchar
    14 00000000                                 [FILE "zuv.c"]
    15                                          [SECTION .text]
    16 00000000                                 	GLOBAL	_printf
    17 00000000                                 _printf:
    18 00000000 55                              	PUSH	EBP
    19 00000001 89 E5                           	MOV	EBP,ESP
    20 00000003 56                              	PUSH	ESI
    21 00000004 53                              	PUSH	EBX
    22 00000005 81 EC 000003F0                  	SUB	ESP,1008
    23 0000000B 8D 45 0C                        	LEA	EAX,DWORD [12+EBP]
    24 0000000E 8D 9D FFFFFC08                  	LEA	EBX,DWORD [-1016+EBP]
    25 00000014 50                              	PUSH	EAX
    26 00000015 FF 75 08                        	PUSH	DWORD [8+EBP]
    27 00000018 53                              	PUSH	EBX
    28 00000019 E8 [00000000]                   	CALL	_vsprintf
    29 0000001E 53                              	PUSH	EBX
    30 0000001F 89 C6                           	MOV	ESI,EAX
    31 00000021 E8 [00000000]                   	CALL	_api_putstr0
    32 00000026 8D 65 F8                        	LEA	ESP,DWORD [-8+EBP]
    33 00000029 89 F0                           	MOV	EAX,ESI
    34 0000002B 5B                              	POP	EBX
    35 0000002C 5E                              	POP	ESI
    36 0000002D 5D                              	POP	EBP
    37 0000002E C3                              	RET
    38 0000002F                                 	GLOBAL	_check_char
    39 0000002F                                 _check_char:
    40 0000002F 55                              	PUSH	EBP
    41 00000030 B9 00000001                     	MOV	ECX,1
    42 00000035 89 E5                           	MOV	EBP,ESP
    43 00000037 8A 55 08                        	MOV	DL,BYTE [8+EBP]
    44 0000003A 8D 42 BF                        	LEA	EAX,DWORD [-65+EDX]
    45 0000003D 3C 19                           	CMP	AL,25
    46 0000003F 76 2A                           	JBE	L2
    47 00000041 8D 42 9F                        	LEA	EAX,DWORD [-97+EDX]
    48 00000044 B9 00000001                     	MOV	ECX,1
    49 00000049 3C 19                           	CMP	AL,25
    50 0000004B 76 1E                           	JBE	L2
    51 0000004D B9 00000001                     	MOV	ECX,1
    52 00000052 80 FA 5F                        	CMP	DL,95
    53 00000055 74 14                           	JE	L2
    54 00000057 83 7D 0C 00                     	CMP	DWORD [12+EBP],0
    55 0000005B 74 0C                           	JE	L6
    56 0000005D 8D 42 D0                        	LEA	EAX,DWORD [-48+EDX]
    57 00000060 B9 00000001                     	MOV	ECX,1
    58 00000065 3C 09                           	CMP	AL,9
    59 00000067 76 02                           	JBE	L2
    60 00000069                                 L6:
    61 00000069 31 C9                           	XOR	ECX,ECX
    62 0000006B                                 L2:
    63 0000006B 89 C8                           	MOV	EAX,ECX
    64 0000006D 5D                              	POP	EBP
    65 0000006E C3                              	RET
    66 0000006F                                 	GLOBAL	_get_num
    67 0000006F                                 _get_num:
    68 0000006F 55                              	PUSH	EBP
    69 00000070 89 E5                           	MOV	EBP,ESP
    70 00000072 53                              	PUSH	EBX
    71 00000073 E8 0000013B                     	CALL	_skip_space
    72 00000078 A1 [00000430]                   	MOV	EAX,DWORD [_p]
    73 0000007D 80 38 28                        	CMP	BYTE [EAX],40
    74 00000080 0F 84 00000091                  	JE	L25
    75 00000086 6A 00                           	PUSH	0
    76 00000088 0F B6 00                        	MOVZX	EAX,BYTE [EAX]
    77 0000008B 50                              	PUSH	EAX
    78 0000008C E8 FFFFFF9E                     	CALL	_check_char
    79 00000091 5A                              	POP	EDX
    80 00000092 59                              	POP	ECX
    81 00000093 85 C0                           	TEST	EAX,EAX
    82 00000095 75 72                           	JNE	L26
    83 00000097 8B 15 [00000430]                	MOV	EDX,DWORD [_p]
    84 0000009D 8A 02                           	MOV	AL,BYTE [EDX]
    85 0000009F 83 E8 30                        	SUB	EAX,48
    86 000000A2 3C 09                           	CMP	AL,9
    87 000000A4 77 2B                           	JA	L13
    88 000000A6 31 DB                           	XOR	EBX,EBX
    89 000000A8                                 L17:
    90 000000A8 6B CB 0A                        	IMUL	ECX,EBX,10
    91 000000AB 8B 15 [00000430]                	MOV	EDX,DWORD [_p]
    92 000000B1 0F BE 02                        	MOVSX	EAX,BYTE [EDX]
    93 000000B4 8D 5C 08 D0                     	LEA	EBX,DWORD [-48+EAX+ECX*1]
    94 000000B8 8D 42 01                        	LEA	EAX,DWORD [1+EDX]
    95 000000BB A3 [00000430]                   	MOV	DWORD [_p],EAX
    96 000000C0 8A 42 01                        	MOV	AL,BYTE [1+EDX]
    97 000000C3 83 E8 30                        	SUB	EAX,48
    98 000000C6 3C 09                           	CMP	AL,9
    99 000000C8 76 DE                           	JBE	L17
   100 000000CA                                 L8:
   101 000000CA 89 D8                           	MOV	EAX,EBX
   102 000000CC 8B 5D FC                        	MOV	EBX,DWORD [-4+EBP]
   103 000000CF C9                              	LEAVE
   104 000000D0 C3                              	RET
   105 000000D1                                 L13:
   106 000000D1 8A 02                           	MOV	AL,BYTE [EDX]
   107 000000D3 3C 2B                           	CMP	AL,43
   108 000000D5 74 21                           	JE	L27
   109 000000D7 3C 2D                           	CMP	AL,45
   110 000000D9 74 0A                           	JE	L28
   111 000000DB 6A 02                           	PUSH	2
   112 000000DD E8 000000B2                     	CALL	_syntaxError
   113 000000E2 58                              	POP	EAX
   114 000000E3 EB E5                           	JMP	L8
   115 000000E5                                 L28:
   116 000000E5 8D 42 01                        	LEA	EAX,DWORD [1+EDX]
   117 000000E8 A3 [00000430]                   	MOV	DWORD [_p],EAX
   118 000000ED E8 FFFFFF7D                     	CALL	_get_num
   119 000000F2 89 C3                           	MOV	EBX,EAX
   120 000000F4 F7 DB                           	NEG	EBX
   121 000000F6 EB D2                           	JMP	L8
   122 000000F8                                 L27:
   123 000000F8 8D 42 01                        	LEA	EAX,DWORD [1+EDX]
   124 000000FB A3 [00000430]                   	MOV	DWORD [_p],EAX
   125 00000100 E8 FFFFFF6A                     	CALL	_get_num
   126 00000105 89 C3                           	MOV	EBX,EAX
   127 00000107 EB C1                           	JMP	L8
   128 00000109                                 L26:
   129 00000109 E8 00000035                     	CALL	_get_var
   130 0000010E 8B 1C 85 [00000030]             	MOV	EBX,DWORD [_var+EAX*4]
   131 00000115 EB B3                           	JMP	L8
   132 00000117                                 L25:
   133 00000117 40                              	INC	EAX
   134 00000118 A3 [00000430]                   	MOV	DWORD [_p],EAX
   135 0000011D E8 000000C0                     	CALL	_calc
   136 00000122 89 C3                           	MOV	EBX,EAX
   137 00000124 E8 0000008A                     	CALL	_skip_space
   138 00000129 A1 [00000430]                   	MOV	EAX,DWORD [_p]
   139 0000012E 80 38 29                        	CMP	BYTE [EAX],41
   140 00000131 74 08                           	JE	L10
   141 00000133 6A 01                           	PUSH	1
   142 00000135 E8 0000005A                     	CALL	_syntaxError
   143 0000013A 58                              	POP	EAX
   144 0000013B                                 L10:
   145 0000013B FF 05 [00000430]                	INC	DWORD [_p]
   146 00000141 EB 87                           	JMP	L8
   147 00000143                                 	GLOBAL	_get_var
   148 00000143                                 _get_var:
   149 00000143 55                              	PUSH	EBP
   150 00000144 A1 [00000430]                   	MOV	EAX,DWORD [_p]
   151 00000149 89 E5                           	MOV	EBP,ESP
   152 0000014B 53                              	PUSH	EBX
   153 0000014C 6A 00                           	PUSH	0
   154 0000014E 0F B6 00                        	MOVZX	EAX,BYTE [EAX]
   155 00000151 50                              	PUSH	EAX
   156 00000152 E8 FFFFFED8                     	CALL	_check_char
   157 00000157 5A                              	POP	EDX
   158 00000158 59                              	POP	ECX
   159 00000159 85 C0                           	TEST	EAX,EAX
   160 0000015B 74 2D                           	JE	L35
   161 0000015D                                 L30:
   162 0000015D A1 [00000430]                   	MOV	EAX,DWORD [_p]
   163 00000162 0F BE 18                        	MOVSX	EBX,BYTE [EAX]
   164 00000165                                 L31:
   165 00000165 A1 [00000430]                   	MOV	EAX,DWORD [_p]
   166 0000016A 6A 01                           	PUSH	1
   167 0000016C 0F B6 00                        	MOVZX	EAX,BYTE [EAX]
   168 0000016F 50                              	PUSH	EAX
   169 00000170 E8 FFFFFEBA                     	CALL	_check_char
   170 00000175 5A                              	POP	EDX
   171 00000176 59                              	POP	ECX
   172 00000177 85 C0                           	TEST	EAX,EAX
   173 00000179 74 08                           	JE	L36
   174 0000017B FF 05 [00000430]                	INC	DWORD [_p]
   175 00000181 EB E2                           	JMP	L31
   176 00000183                                 L36:
   177 00000183 89 D8                           	MOV	EAX,EBX
   178 00000185 8B 5D FC                        	MOV	EBX,DWORD [-4+EBP]
   179 00000188 C9                              	LEAVE
   180 00000189 C3                              	RET
   181 0000018A                                 L35:
   182 0000018A 6A 03                           	PUSH	3
   183 0000018C E8 00000003                     	CALL	_syntaxError
   184 00000191 5B                              	POP	EBX
   185 00000192 EB C9                           	JMP	L30
   186                                          [SECTION .data]
   187 00000000                                 LC0:
   188 00000000 73 79 6E 74 61 78 20 65 72 72   	DB	"syntax error %d: %.30s",0x0A,0x00
       0000000A 6F 72 20 25 64 3A 20 25 2E 33 
       00000014 30 73 0A 00 
   189                                          [SECTION .text]
   190 00000194                                 	GLOBAL	_syntaxError
   191 00000194                                 _syntaxError:
   192 00000194 55                              	PUSH	EBP
   193 00000195 89 E5                           	MOV	EBP,ESP
   194 00000197 FF 35 [00000430]                	PUSH	DWORD [_p]
   195 0000019D FF 75 08                        	PUSH	DWORD [8+EBP]
   196 000001A0 68 [00000000]                   	PUSH	LC0
   197 000001A5 E8 FFFFFE56                     	CALL	_printf
   198 000001AA 83 C4 0C                        	ADD	ESP,12
   199 000001AD C9                              	LEAVE
   200 000001AE E9 [00000000]                   	JMP	_api_end
   201 000001B3                                 	GLOBAL	_skip_space
   202 000001B3                                 _skip_space:
   203 000001B3 A1 [00000430]                   	MOV	EAX,DWORD [_p]
   204 000001B8 55                              	PUSH	EBP
   205 000001B9 89 E5                           	MOV	EBP,ESP
   206 000001BB 8A 00                           	MOV	AL,BYTE [EAX]
   207 000001BD 3C 20                           	CMP	AL,32
   208 000001BF 74 06                           	JE	L42
   209 000001C1 3C 09                           	CMP	AL,9
   210 000001C3 74 02                           	JE	L42
   211 000001C5                                 L44:
   212 000001C5 5D                              	POP	EBP
   213 000001C6 C3                              	RET
   214 000001C7                                 L42:
   215 000001C7 8B 15 [00000430]                	MOV	EDX,DWORD [_p]
   216 000001CD 8D 42 01                        	LEA	EAX,DWORD [1+EDX]
   217 000001D0 A3 [00000430]                   	MOV	DWORD [_p],EAX
   218 000001D5 8A 42 01                        	MOV	AL,BYTE [1+EDX]
   219 000001D8 3C 20                           	CMP	AL,32
   220 000001DA 74 EB                           	JE	L42
   221 000001DC 3C 09                           	CMP	AL,9
   222 000001DE 74 E7                           	JE	L42
   223 000001E0 EB E3                           	JMP	L44
   224 000001E2                                 	GLOBAL	_calc
   225 000001E2                                 _calc:
   226 000001E2 55                              	PUSH	EBP
   227 000001E3 89 E5                           	MOV	EBP,ESP
   228 000001E5 53                              	PUSH	EBX
   229 000001E6 E8 FFFFFE84                     	CALL	_get_num
   230 000001EB                                 L58:
   231 000001EB 89 C3                           	MOV	EBX,EAX
   232 000001ED                                 L46:
   233 000001ED E8 FFFFFFC1                     	CALL	_skip_space
   234 000001F2 A1 [00000430]                   	MOV	EAX,DWORD [_p]
   235 000001F7 0F BE 10                        	MOVSX	EDX,BYTE [EAX]
   236 000001FA 83 FA 2B                        	CMP	EDX,43
   237 000001FD 75 0F                           	JNE	L59
   238 000001FF 40                              	INC	EAX
   239 00000200 A3 [00000430]                   	MOV	DWORD [_p],EAX
   240 00000205 E8 FFFFFE65                     	CALL	_get_num
   241 0000020A 01 C3                           	ADD	EBX,EAX
   242 0000020C EB DF                           	JMP	L46
   243 0000020E                                 L59:
   244 0000020E 83 FA 2B                        	CMP	EDX,43
   245 00000211 7E 34                           	JLE	L60
   246 00000213 83 FA 2D                        	CMP	EDX,45
   247 00000216 75 0F                           	JNE	L61
   248 00000218 40                              	INC	EAX
   249 00000219 A3 [00000430]                   	MOV	DWORD [_p],EAX
   250 0000021E E8 FFFFFE4C                     	CALL	_get_num
   251 00000223 29 C3                           	SUB	EBX,EAX
   252 00000225 EB C6                           	JMP	L46
   253 00000227                                 L61:
   254 00000227 83 FA 2F                        	CMP	EDX,47
   255 0000022A 75 16                           	JNE	L54
   256 0000022C 40                              	INC	EAX
   257 0000022D A3 [00000430]                   	MOV	DWORD [_p],EAX
   258 00000232 E8 FFFFFE38                     	CALL	_get_num
   259 00000237 89 C2                           	MOV	EDX,EAX
   260 00000239 89 D8                           	MOV	EAX,EBX
   261 0000023B 89 D1                           	MOV	ECX,EDX
   262 0000023D 99                              	CDQ
   263 0000023E F7 F9                           	IDIV	ECX
   264 00000240 EB A9                           	JMP	L58
   265 00000242                                 L54:
   266 00000242 89 D8                           	MOV	EAX,EBX
   267 00000244 5B                              	POP	EBX
   268 00000245 5D                              	POP	EBP
   269 00000246 C3                              	RET
   270 00000247                                 L60:
   271 00000247 83 FA 2A                        	CMP	EDX,42
   272 0000024A 75 F6                           	JNE	L54
   273 0000024C 40                              	INC	EAX
   274 0000024D A3 [00000430]                   	MOV	DWORD [_p],EAX
   275 00000252 E8 FFFFFE18                     	CALL	_get_num
   276 00000257 0F AF D8                        	IMUL	EBX,EAX
   277 0000025A EB 91                           	JMP	L46
   278                                          [SECTION .data]
   279 00000018                                 LC1:
   280 00000018 70 72 69 6E 74 00               	DB	"print",0x00
   281 0000001E                                 LC2:
   282 0000001E 25 64 00                        	DB	"%d",0x00
   283                                          [SECTION .text]
   284 0000025C                                 	GLOBAL	_ZuviMain
   285 0000025C                                 _ZuviMain:
   286 0000025C 55                              	PUSH	EBP
   287 0000025D B8 00002734                     	MOV	EAX,10036
   288 00000262 89 E5                           	MOV	EBP,ESP
   289 00000264 57                              	PUSH	EDI
   290 00000265 56                              	PUSH	ESI
   291 00000266 31 FF                           	XOR	EDI,EDI
   292 00000268 53                              	PUSH	EBX
   293 00000269 8D 9D FFFFD8C4                  	LEA	EBX,DWORD [-10044+EBP]
   294 0000026F E8 [00000000]                   	CALL	__alloca
   295 00000274 6A 1E                           	PUSH	30
   296 00000276 53                              	PUSH	EBX
   297 00000277 E8 [00000000]                   	CALL	_api_cmdline
   298 0000027C 58                              	POP	EAX
   299 0000027D 89 1D [00000430]                	MOV	DWORD [_p],EBX
   300 00000283 5A                              	POP	EDX
   301 00000284 80 BD FFFFD8C4 20               	CMP	BYTE [-10044+EBP],32
   302 0000028B 7E 14                           	JLE	L94
   303 0000028D                                 L69:
   304 0000028D 8B 15 [00000430]                	MOV	EDX,DWORD [_p]
   305 00000293 8D 42 01                        	LEA	EAX,DWORD [1+EDX]
   306 00000296 A3 [00000430]                   	MOV	DWORD [_p],EAX
   307 0000029B 80 7A 01 20                     	CMP	BYTE [1+EDX],32
   308 0000029F 7F EC                           	JG	L69
   309 000002A1                                 L94:
   310 000002A1 E8 FFFFFF0D                     	CALL	_skip_space
   311 000002A6 8B 15 [00000430]                	MOV	EDX,DWORD [_p]
   312 000002AC 80 3A 2D                        	CMP	BYTE [EDX],45
   313 000002AF 0F 84 00000142                  	JE	L99
   314 000002B5                                 L70:
   315 000002B5 FF 35 [00000430]                	PUSH	DWORD [_p]
   316 000002BB 31 DB                           	XOR	EBX,EBX
   317 000002BD E8 [00000000]                   	CALL	_api_fopen
   318 000002C2 89 C6                           	MOV	ESI,EAX
   319 000002C4 58                              	POP	EAX
   320 000002C5 85 F6                           	TEST	ESI,ESI
   321 000002C7 0F 85 000000F0                  	JNE	L73
   322 000002CD                                 L72:
   323 000002CD C6 84 1D FFFFD8E4 FF            	MOV	BYTE [-10012+EBP+EBX*1],-1
   324 000002D5 31 C0                           	XOR	EAX,EAX
   325 000002D7                                 L82:
   326 000002D7 C7 04 85 [00000030] 00000000    	MOV	DWORD [_var+EAX*4],0
   327 000002E2 40                              	INC	EAX
   328 000002E3 3D 000000FF                     	CMP	EAX,255
   329 000002E8 7E ED                           	JLE	L82
   330 000002EA 8D 85 FFFFD8E4                  	LEA	EAX,DWORD [-10012+EBP]
   331 000002F0                                 L98:
   332 000002F0 A3 [00000430]                   	MOV	DWORD [_p],EAX
   333 000002F5                                 L83:
   334 000002F5 E8 FFFFFEB9                     	CALL	_skip_space
   335 000002FA 8B 1D [00000430]                	MOV	EBX,DWORD [_p]
   336 00000300 8A 03                           	MOV	AL,BYTE [EBX]
   337 00000302 3C FF                           	CMP	AL,-1
   338 00000304 0F 84 000000A4                  	JE	L84
   339 0000030A 3C 0A                           	CMP	AL,10
   340 0000030C 0F 84 00000094                  	JE	L100
   341 00000312 B8 00000005                     	MOV	EAX,5
   342 00000317 89 DE                           	MOV	ESI,EBX
   343 00000319 FC                              	CLD
   344 0000031A BF [00000018]                   	MOV	EDI,LC1
   345 0000031F 89 C1                           	MOV	ECX,EAX
   346 00000321 F3                              	REPE
   347 00000322 A6                              	CMPSB
   348 00000323 75 0B                           	JNE	L88
   349 00000325 8A 43 05                        	MOV	AL,BYTE [5+EBX]
   350 00000328 3C 20                           	CMP	AL,32
   351 0000032A 74 49                           	JE	L89
   352 0000032C 3C 09                           	CMP	AL,9
   353 0000032E 74 45                           	JE	L89
   354 00000330                                 L88:
   355 00000330 E8 FFFFFE0E                     	CALL	_get_var
   356 00000335 89 C3                           	MOV	EBX,EAX
   357 00000337 E8 FFFFFE77                     	CALL	_skip_space
   358 0000033C A1 [00000430]                   	MOV	EAX,DWORD [_p]
   359 00000341 80 38 3D                        	CMP	BYTE [EAX],61
   360 00000344 74 0A                           	JE	L101
   361 00000346 6A 06                           	PUSH	6
   362 00000348                                 L97:
   363 00000348 E8 FFFFFE47                     	CALL	_syntaxError
   364 0000034D 5B                              	POP	EBX
   365 0000034E EB A5                           	JMP	L83
   366 00000350                                 L101:
   367 00000350 40                              	INC	EAX
   368 00000351 A3 [00000430]                   	MOV	DWORD [_p],EAX
   369 00000356 E8 FFFFFE87                     	CALL	_calc
   370 0000035B 89 04 9D [00000030]             	MOV	DWORD [_var+EBX*4],EAX
   371 00000362 E8 FFFFFE4C                     	CALL	_skip_space
   372 00000367 A1 [00000430]                   	MOV	EAX,DWORD [_p]
   373 0000036C 80 38 0A                        	CMP	BYTE [EAX],10
   374 0000036F 74 84                           	JE	L83
   375 00000371 6A 05                           	PUSH	5
   376 00000373 EB D3                           	JMP	L97
   377 00000375                                 L89:
   378 00000375 8D 43 06                        	LEA	EAX,DWORD [6+EBX]
   379 00000378 A3 [00000430]                   	MOV	DWORD [_p],EAX
   380 0000037D E8 FFFFFE60                     	CALL	_calc
   381 00000382 50                              	PUSH	EAX
   382 00000383 68 [0000001E]                   	PUSH	LC2
   383 00000388 E8 FFFFFC73                     	CALL	_printf
   384 0000038D E8 FFFFFE21                     	CALL	_skip_space
   385 00000392 A1 [00000430]                   	MOV	EAX,DWORD [_p]
   386 00000397 5E                              	POP	ESI
   387 00000398 5F                              	POP	EDI
   388 00000399 80 38 0A                        	CMP	BYTE [EAX],10
   389 0000039C 0F 84 FFFFFF53                  	JE	L83
   390 000003A2 6A 04                           	PUSH	4
   391 000003A4 EB A2                           	JMP	L97
   392 000003A6                                 L100:
   393 000003A6 8D 43 01                        	LEA	EAX,DWORD [1+EBX]
   394 000003A9 E9 FFFFFF42                     	JMP	L98
   395 000003AE                                 L84:
   396 000003AE E8 [00000000]                   	CALL	_api_end
   397 000003B3 8D 65 F4                        	LEA	ESP,DWORD [-12+EBP]
   398 000003B6 5B                              	POP	EBX
   399 000003B7 31 C0                           	XOR	EAX,EAX
   400 000003B9 5E                              	POP	ESI
   401 000003BA 5F                              	POP	EDI
   402 000003BB 5D                              	POP	EBP
   403 000003BC C3                              	RET
   404 000003BD                                 L73:
   405 000003BD 56                              	PUSH	ESI
   406 000003BE 8D 85 FFFFD8C3                  	LEA	EAX,DWORD [-10045+EBP]
   407 000003C4 6A 01                           	PUSH	1
   408 000003C6 50                              	PUSH	EAX
   409 000003C7 E8 [00000000]                   	CALL	_api_fread
   410 000003CC 83 C4 0C                        	ADD	ESP,12
   411 000003CF 85 C0                           	TEST	EAX,EAX
   412 000003D1 0F 84 FFFFFEF6                  	JE	L72
   413 000003D7 8A 85 FFFFD8C3                  	MOV	AL,BYTE [-10045+EBP]
   414 000003DD 85 FF                           	TEST	EDI,EDI
   415 000003DF 88 84 1D FFFFD8E4               	MOV	BYTE [-10012+EBP+EBX*1],AL
   416 000003E6 75 03                           	JNE	L102
   417 000003E8                                 L77:
   418 000003E8 43                              	INC	EBX
   419 000003E9 EB D2                           	JMP	L73
   420 000003EB                                 L102:
   421 000003EB 0F BE C0                        	MOVSX	EAX,AL
   422 000003EE 50                              	PUSH	EAX
   423 000003EF E8 [00000000]                   	CALL	_api_putchar
   424 000003F4 58                              	POP	EAX
   425 000003F5 EB F1                           	JMP	L77
   426 000003F7                                 L99:
   427 000003F7 8D 42 01                        	LEA	EAX,DWORD [1+EDX]
   428 000003FA A3 [00000430]                   	MOV	DWORD [_p],EAX
   429 000003FF 80 7A 01 73                     	CMP	BYTE [1+EDX],115
   430 00000403 74 12                           	JE	L103
   431 00000405                                 L71:
   432 00000405 8D 42 02                        	LEA	EAX,DWORD [2+EDX]
   433 00000408 A3 [00000430]                   	MOV	DWORD [_p],EAX
   434 0000040D E8 FFFFFDA1                     	CALL	_skip_space
   435 00000412 E9 FFFFFE9E                     	JMP	L70
   436 00000417                                 L103:
   437 00000417 BF 00000001                     	MOV	EDI,1
   438 0000041C EB E7                           	JMP	L71
   439 0000041E                                 	GLOBAL	_var
   440                                          [SECTION .data]
   441 00000021 00 00 00 00 00 00 00 00 00 00   	ALIGNB	16
       0000002B 00 00 00 00 00 
   442 00000030                                 _var:
   443 00000030 00 00 00 00 00 00 00 00 00 00   	RESB	1024
       0000003A 00 00 00 00 00 00 00 00 00 00 
       00000044 00 00 00 00 00 00 00 00 00 00 
       0000004E 00 00 00 00 00 00 00 00 00 00 
       00000058 00 00 00 00 00 00 00 00 00 00 
       00000062 00 00 00 00 00 00 00 00 00 00 
       0000006C 00 00 00 00 00 00 00 00 00 00 
       00000076 00 00 00 00 00 00 00 00 00 00 
       00000080 00 00 00 00 00 00 00 00 00 00 
       0000008A 00 00 00 00 00 00 00 00 00 00 
       00000094 00 00 00 00 00 00 00 00 00 00 
       0000009E 00 00 00 00 00 00 00 00 00 00 
       000000A8 00 00 00 00 00 00 00 00 00 00 
       000000B2 00 00 00 00 00 00 00 00 00 00 
       000000BC 00 00 00 00 00 00 00 00 00 00 
       000000C6 00 00 00 00 00 00 00 00 00 00 
       000000D0 00 00 00 00 00 00 00 00 00 00 
       000000DA 00 00 00 00 00 00 00 00 00 00 
       000000E4 00 00 00 00 00 00 00 00 00 00 
       000000EE 00 00 00 00 00 00 00 00 00 00 
       000000F8 00 00 00 00 00 00 00 00 00 00 
       00000102 00 00 00 00 00 00 00 00 00 00 
       0000010C 00 00 00 00 00 00 00 00 00 00 
       00000116 00 00 00 00 00 00 00 00 00 00 
       00000120 00 00 00 00 00 00 00 00 00 00 
       0000012A 00 00 00 00 00 00 00 00 00 00 
       00000134 00 00 00 00 00 00 00 00 00 00 
       0000013E 00 00 00 00 00 00 00 00 00 00 
       00000148 00 00 00 00 00 00 00 00 00 00 
       00000152 00 00 00 00 00 00 00 00 00 00 
       0000015C 00 00 00 00 00 00 00 00 00 00 
       00000166 00 00 00 00 00 00 00 00 00 00 
       00000170 00 00 00 00 00 00 00 00 00 00 
       0000017A 00 00 00 00 00 00 00 00 00 00 
       00000184 00 00 00 00 00 00 00 00 00 00 
       0000018E 00 00 00 00 00 00 00 00 00 00 
       00000198 00 00 00 00 00 00 00 00 00 00 
       000001A2 00 00 00 00 00 00 00 00 00 00 
       000001AC 00 00 00 00 00 00 00 00 00 00 
       000001B6 00 00 00 00 00 00 00 00 00 00 
       000001C0 00 00 00 00 00 00 00 00 00 00 
       000001CA 00 00 00 00 00 00 00 00 00 00 
       000001D4 00 00 00 00 00 00 00 00 00 00 
       000001DE 00 00 00 00 00 00 00 00 00 00 
       000001E8 00 00 00 00 00 00 00 00 00 00 
       000001F2 00 00 00 00 00 00 00 00 00 00 
       000001FC 00 00 00 00 00 00 00 00 00 00 
       00000206 00 00 00 00 00 00 00 00 00 00 
       00000210 00 00 00 00 00 00 00 00 00 00 
       0000021A 00 00 00 00 00 00 00 00 00 00 
       00000224 00 00 00 00 00 00 00 00 00 00 
       0000022E 00 00 00 00 00 00 00 00 00 00 
       00000238 00 00 00 00 00 00 00 00 00 00 
       00000242 00 00 00 00 00 00 00 00 00 00 
       0000024C 00 00 00 00 00 00 00 00 00 00 
       00000256 00 00 00 00 00 00 00 00 00 00 
       00000260 00 00 00 00 00 00 00 00 00 00 
       0000026A 00 00 00 00 00 00 00 00 00 00 
       00000274 00 00 00 00 00 00 00 00 00 00 
       0000027E 00 00 00 00 00 00 00 00 00 00 
       00000288 00 00 00 00 00 00 00 00 00 00 
       00000292 00 00 00 00 00 00 00 00 00 00 
       0000029C 00 00 00 00 00 00 00 00 00 00 
       000002A6 00 00 00 00 00 00 00 00 00 00 
       000002B0 00 00 00 00 00 00 00 00 00 00 
       000002BA 00 00 00 00 00 00 00 00 00 00 
       000002C4 00 00 00 00 00 00 00 00 00 00 
       000002CE 00 00 00 00 00 00 00 00 00 00 
       000002D8 00 00 00 00 00 00 00 00 00 00 
       000002E2 00 00 00 00 00 00 00 00 00 00 
       000002EC 00 00 00 00 00 00 00 00 00 00 
       000002F6 00 00 00 00 00 00 00 00 00 00 
       00000300 00 00 00 00 00 00 00 00 00 00 
       0000030A 00 00 00 00 00 00 00 00 00 00 
       00000314 00 00 00 00 00 00 00 00 00 00 
       0000031E 00 00 00 00 00 00 00 00 00 00 
       00000328 00 00 00 00 00 00 00 00 00 00 
       00000332 00 00 00 00 00 00 00 00 00 00 
       0000033C 00 00 00 00 00 00 00 00 00 00 
       00000346 00 00 00 00 00 00 00 00 00 00 
       00000350 00 00 00 00 00 00 00 00 00 00 
       0000035A 00 00 00 00 00 00 00 00 00 00 
       00000364 00 00 00 00 00 00 00 00 00 00 
       0000036E 00 00 00 00 00 00 00 00 00 00 
       00000378 00 00 00 00 00 00 00 00 00 00 
       00000382 00 00 00 00 00 00 00 00 00 00 
       0000038C 00 00 00 00 00 00 00 00 00 00 
       00000396 00 00 00 00 00 00 00 00 00 00 
       000003A0 00 00 00 00 00 00 00 00 00 00 
       000003AA 00 00 00 00 00 00 00 00 00 00 
       000003B4 00 00 00 00 00 00 00 00 00 00 
       000003BE 00 00 00 00 00 00 00 00 00 00 
       000003C8 00 00 00 00 00 00 00 00 00 00 
       000003D2 00 00 00 00 00 00 00 00 00 00 
       000003DC 00 00 00 00 00 00 00 00 00 00 
       000003E6 00 00 00 00 00 00 00 00 00 00 
       000003F0 00 00 00 00 00 00 00 00 00 00 
       000003FA 00 00 00 00 00 00 00 00 00 00 
       00000404 00 00 00 00 00 00 00 00 00 00 
       0000040E 00 00 00 00 00 00 00 00 00 00 
       00000418 00 00 00 00 00 00 00 00 00 00 
       00000422 00 00 00 00 00 00 00 00 00 00 
       0000042C 00 00 00 00 
   444 00000430                                 	GLOBAL	_p
   445                                          [SECTION .data]
   446 00000430                                 	ALIGNB	4
   447 00000430                                 _p:
   448 00000430 00 00 00 00                     	RESB	4
